target datalayout = "e-m:e-p270:32:32-p271:32:32-p272:64:64-i64:64-i128:128-f80:128-n8:16:32:64-S128"
target triple = "x86_64-pc-linux-gnu"

%struct.ieee802154_map_tab_t = type { ptr, ptr }
%struct.ieee802154_map_rec = type { ptr, i32, i32, i64 }

@ieee802154_map = hidden global %struct.ieee802154_map_tab_t zeroinitializer, align 8

; Function Attrs: null_pointer_is_valid sspstrong uwtable
define hidden zeroext i1 @ieee802154_long_addr_invalidate(i64 noundef %0, i32 noundef %1) #0 {
  %3 = alloca i1, align 1
  %4 = alloca i64, align 8
  %5 = alloca i32, align 4
  %6 = alloca ptr, align 8
  %7 = alloca i32, align 4
  store i64 %0, ptr %4, align 8
  store i32 %1, ptr %5, align 4
  call void @llvm.lifetime.start.p0(i64 8, ptr %6) #17
  %8 = load ptr, ptr @ieee802154_map, align 8
  %9 = call ptr @g_hash_table_lookup(ptr noundef %8, ptr noundef %4)
  store ptr %9, ptr %6, align 8
  %10 = load ptr, ptr %6, align 8
  %11 = icmp ne ptr %10, null
  br i1 %11, label %12, label %16

12:                                               ; preds = %2
  %13 = load i32, ptr %5, align 4
  %14 = load ptr, ptr %6, align 8
  %15 = getelementptr inbounds nuw %struct.ieee802154_map_rec, ptr %14, i32 0, i32 2
  store i32 %13, ptr %15, align 4
  store i1 true, ptr %3, align 1
  store i32 1, ptr %7, align 4
  br label %17

16:                                               ; preds = %2
  store i1 false, ptr %3, align 1
  store i32 1, ptr %7, align 4
  br label %17

17:                                               ; preds = %16, %12
  call void @llvm.lifetime.end.p0(i64 8, ptr %6) #17
  %18 = load i1, ptr %3, align 1
  ret i1 %18
}