; Function Attrs: null_pointer_is_valid sspstrong uwtable
define hidden noundef zeroext i1 @ieee802154_long_addr_invalidate(i64 noundef %0, i32 noundef %1) local_unnamed_addr #0 {
  %3 = alloca i64, align 8
  store i64 %0, ptr %3, align 8
  %4 = load ptr, ptr @ieee802154_map, align 8
  %5 = call ptr @g_hash_table_lookup(ptr noundef %4, ptr noundef nonnull %3)
  %.not = icmp ne ptr %5, null
  br i1 %.not, label %6, label %8

6:                                                ; preds = %2
  %7 = getelementptr inbounds nuw i8, ptr %5, i64 12
  store i32 %1, ptr %7, align 4
  br label %8

8:                                                ; preds = %2, %6
  ret i1 %.not
}